; Function Attrs: mustprogress nofree norecurse nosync nounwind willreturn memory(read, inaccessiblemem: none) uwtable
define dso_local noundef i32 @_ZN4node12NodePlatform21NumberOfWorkerThreadsEv(ptr nocapture noundef nonnull readonly align 8 dereferenceable(137) %this) unnamed_addr #13 align 2 {
entry:
  %worker_thread_task_runner_ = getelementptr inbounds i8, ptr %this, i64 120
  %0 = load ptr, ptr %worker_thread_task_runner_, align 8
  %threads_.i = getelementptr inbounds i8, ptr %0, i64 232
  %_M_finish.i.i = getelementptr inbounds i8, ptr %0, i64 240
  %1 = load ptr, ptr %_M_finish.i.i, align 8
  %2 = load ptr, ptr %threads_.i, align 8
  %sub.ptr.lhs.cast.i.i = ptrtoint ptr %1 to i64
  %sub.ptr.rhs.cast.i.i = ptrtoint ptr %2 to i64
  %sub.ptr.sub.i.i = sub i64 %sub.ptr.lhs.cast.i.i, %sub.ptr.rhs.cast.i.i
  %sub.ptr.div.i.i = lshr exact i64 %sub.ptr.sub.i.i, 3
  %conv.i = trunc i64 %sub.ptr.div.i.i to i32
  ret i32 %conv.i
}